ccopy_reg
_reconstructor
p0
(cgoogle.oauth2.credentials
Credentials
p1
c__builtin__
object
p2
Ntp3
Rp4
(dp5
S'_token_uri'
p6
Vhttps://oauth2.googleapis.com/token
p7
sS'_scopes'
p8
(lp9
S'https://www.googleapis.com/auth/spreadsheets.readonly'
p10
asS'_id_token'
p11
NsS'token'
p12
Vya29.GltvB-bVG0izf7T7L5PccQ-IuFSYi5nYTLeW8HXdjHeW-FfiGIiRnwsODTQKlHGPuqzPbe_aTx6l66pRyAfr87AhvGICJKR_cdzd5SXpdEhc9r5dpun_VhsElWj5
p13
sS'_refresh_token'
p14
V1/hlnmEosWSIzOt_mKN_KKnymVN7ju1MBTb8XwF05A4p0
p15
sS'_client_secret'
p16
VmQ8_T2aVvFoeWrj9Zx8KzdSt
p17
sS'_client_id'
p18
V1067281441787-spl77t1pq0mbei22m812f0mf3a4d1pk7.apps.googleusercontent.com
p19
sS'expiry'
p20
cdatetime
datetime
p21
(S'\x07\xe3\x08\x18\x16\x1c\x14\x04\x1d\xbe'
p22
tp23
Rp24
sb.